target datalayout = "e-m:e-p270:32:32-p271:32:32-p272:64:64-i64:64-i128:128-f80:128-n8:16:32:64-S128"
target triple = "x86_64-pc-linux-gnu"

%struct.Llb_Mtr_t_ = type { i32, i32, i32, i32, ptr, ptr, ptr, ptr, ptr, ptr, ptr }
%struct.Llb_Man_t_ = type { ptr, ptr, ptr, ptr, ptr, ptr, ptr, ptr, ptr, ptr, ptr, ptr, ptr, ptr, ptr, ptr, ptr }
%struct.Gia_ParLlb_t_ = type { i32, i32, i32, i32, i32, i32, i32, i32, i32, i32, i32, i32, i32, i32, i32, i32, i32, i32, i32, i32, i32, i32, i32, i64, i32 }

; Function Attrs: nounwind uwtable
define float @Llb_ManComputeCommonAttr(ptr noundef %0, i32 noundef %1, i32 noundef %2) #0 {
  %4 = alloca ptr, align 8
  %5 = alloca i32, align 4
  %6 = alloca i32, align 4
  %7 = alloca i32, align 4
  %8 = alloca i32, align 4
  %9 = alloca i32, align 4
  store ptr %0, ptr %4, align 8, !tbaa !3
  store i32 %1, ptr %5, align 4, !tbaa !8
  store i32 %2, ptr %6, align 4, !tbaa !8
  call void @llvm.lifetime.start.p0(i64 4, ptr %7) #4
  call void @llvm.lifetime.start.p0(i64 4, ptr %8) #4
  store i32 0, ptr %8, align 4, !tbaa !8
  call void @llvm.lifetime.start.p0(i64 4, ptr %9) #4
  store i32 0, ptr %9, align 4, !tbaa !8
  store i32 0, ptr %7, align 4, !tbaa !8
  br label %10

10:                                               ; preds = %84, %3
  %11 = load i32, ptr %7, align 4, !tbaa !8
  %12 = load ptr, ptr %4, align 8, !tbaa !3
  %13 = getelementptr inbounds nuw %struct.Llb_Mtr_t_, ptr %12, i32 0, i32 2
  %14 = load i32, ptr %13, align 8, !tbaa !10
  %15 = load ptr, ptr %4, align 8, !tbaa !3
  %16 = getelementptr inbounds nuw %struct.Llb_Mtr_t_, ptr %15, i32 0, i32 1
  %17 = load i32, ptr %16, align 4, !tbaa !17
  %18 = sub nsw i32 %14, %17
  %19 = icmp slt i32 %11, %18
  br i1 %19, label %20, label %87

20:                                               ; preds = %10
  %21 = load ptr, ptr %4, align 8, !tbaa !3
  %22 = getelementptr inbounds nuw %struct.Llb_Mtr_t_, ptr %21, i32 0, i32 7
  %23 = load ptr, ptr %22, align 8, !tbaa !18
  %24 = load i32, ptr %5, align 4, !tbaa !8
  %25 = sext i32 %24 to i64
  %26 = getelementptr inbounds ptr, ptr %23, i64 %25
  %27 = load ptr, ptr %26, align 8, !tbaa !19
  %28 = load i32, ptr %7, align 4, !tbaa !8
  %29 = sext i32 %28 to i64
  %30 = getelementptr inbounds i8, ptr %27, i64 %29
  %31 = load i8, ptr %30, align 1, !tbaa !20
  %32 = sext i8 %31 to i32
  %33 = icmp eq i32 %32, 1
  br i1 %33, label %34, label %51

34:                                               ; preds = %20
  %35 = load ptr, ptr %4, align 8, !tbaa !3
  %36 = getelementptr inbounds nuw %struct.Llb_Mtr_t_, ptr %35, i32 0, i32 7
  %37 = load ptr, ptr %36, align 8, !tbaa !18
  %38 = load i32, ptr %6, align 4, !tbaa !8
  %39 = sext i32 %38 to i64
  %40 = getelementptr inbounds ptr, ptr %37, i64 %39
  %41 = load ptr, ptr %40, align 8, !tbaa !19
  %42 = load i32, ptr %7, align 4, !tbaa !8
  %43 = sext i32 %42 to i64
  %44 = getelementptr inbounds i8, ptr %41, i64 %43
  %45 = load i8, ptr %44, align 1, !tbaa !20
  %46 = sext i8 %45 to i32
  %47 = icmp eq i32 %46, 1
  br i1 %47, label %48, label %51

48:                                               ; preds = %34
  %49 = load i32, ptr %8, align 4, !tbaa !8
  %50 = add nsw i32 %49, 1
  store i32 %50, ptr %8, align 4, !tbaa !8
  br label %83

51:                                               ; preds = %34, %20
  %52 = load ptr, ptr %4, align 8, !tbaa !3
  %53 = getelementptr inbounds nuw %struct.Llb_Mtr_t_, ptr %52, i32 0, i32 7
  %54 = load ptr, ptr %53, align 8, !tbaa !18
  %55 = load i32, ptr %5, align 4, !tbaa !8
  %56 = sext i32 %55 to i64
  %57 = getelementptr inbounds ptr, ptr %54, i64 %56
  %58 = load ptr, ptr %57, align 8, !tbaa !19
  %59 = load i32, ptr %7, align 4, !tbaa !8
  %60 = sext i32 %59 to i64
  %61 = getelementptr inbounds i8, ptr %58, i64 %60
  %62 = load i8, ptr %61, align 1, !tbaa !20
  %63 = sext i8 %62 to i32
  %64 = icmp eq i32 %63, 1
  br i1 %64, label %79, label %65

65:                                               ; preds = %51
  %66 = load ptr, ptr %4, align 8, !tbaa !3
  %67 = getelementptr inbounds nuw %struct.Llb_Mtr_t_, ptr %66, i32 0, i32 7
  %68 = load ptr, ptr %67, align 8, !tbaa !18
  %69 = load i32, ptr %6, align 4, !tbaa !8
  %70 = sext i32 %69 to i64
  %71 = getelementptr inbounds ptr, ptr %68, i64 %70
  %72 = load ptr, ptr %71, align 8, !tbaa !19
  %73 = load i32, ptr %7, align 4, !tbaa !8
  %74 = sext i32 %73 to i64
  %75 = getelementptr inbounds i8, ptr %72, i64 %74
  %76 = load i8, ptr %75, align 1, !tbaa !20
  %77 = sext i8 %76 to i32
  %78 = icmp eq i32 %77, 1
  br i1 %78, label %79, label %82

79:                                               ; preds = %65, %51
  %80 = load i32, ptr %9, align 4, !tbaa !8
  %81 = add nsw i32 %80, 1
  store i32 %81, ptr %9, align 4, !tbaa !8
  br label %82

82:                                               ; preds = %79, %65
  br label %83

83:                                               ; preds = %82, %48
  br label %84

84:                                               ; preds = %83
  %85 = load i32, ptr %7, align 4, !tbaa !8
  %86 = add nsw i32 %85, 1
  store i32 %86, ptr %7, align 4, !tbaa !8
  br label %10, !llvm.loop !49

87:                                               ; preds = %10
  %88 = load i32, ptr %9, align 4, !tbaa !8
  %89 = sitofp i32 %88 to double
  %90 = fmul double -1.000000e+00, %89
  %91 = load i32, ptr %8, align 4, !tbaa !8
  %92 = load i32, ptr %9, align 4, !tbaa !8
  %93 = add nsw i32 %91, %92
  %94 = sitofp i32 %93 to double
  %95 = fdiv double %90, %94
  %96 = fptrunc double %95 to float
  call void @llvm.lifetime.end.p0(i64 4, ptr %9) #4
  call void @llvm.lifetime.end.p0(i64 4, ptr %8) #4
  call void @llvm.lifetime.end.p0(i64 4, ptr %7) #4
  ret float %96
}

; Function Attrs: nounwind uwtable
define i32 @Llb_ManComputeBestAttr(ptr noundef %0) #0 {
  %2 = alloca ptr, align 8
  %3 = alloca float, align 4
  %4 = alloca float, align 4
  %5 = alloca i32, align 4
  %6 = alloca i32, align 4
  %7 = alloca i32, align 4
  store ptr %0, ptr %2, align 8, !tbaa !3
  call void @llvm.lifetime.start.p0(i64 4, ptr %3) #4
  store float -1.000000e+05, ptr %3, align 4, !tbaa !43
  call void @llvm.lifetime.start.p0(i64 4, ptr %4) #4
  call void @llvm.lifetime.start.p0(i64 4, ptr %5) #4
  call void @llvm.lifetime.start.p0(i64 4, ptr %6) #4
  call void @llvm.lifetime.start.p0(i64 4, ptr %7) #4
  store i32 -1, ptr %7, align 4, !tbaa !8
  store i32 1, ptr %5, align 4, !tbaa !8
  br label %8

8:                                                ; preds = %96, %1
  %9 = load i32, ptr %5, align 4, !tbaa !8
  %10 = load ptr, ptr %2, align 8, !tbaa !3
  %11 = getelementptr inbounds nuw %struct.Llb_Mtr_t_, ptr %10, i32 0, i32 3
  %12 = load i32, ptr %11, align 4, !tbaa !24
  %13 = sub nsw i32 %12, 1
  %14 = icmp slt i32 %9, %13
  br i1 %14, label %15, label %99

15:                                               ; preds = %8
  %16 = load i32, ptr %5, align 4, !tbaa !8
  %17 = add nsw i32 %16, 1
  store i32 %17, ptr %6, align 4, !tbaa !8
  br label %18

18:                                               ; preds = %92, %15
  %19 = load i32, ptr %6, align 4, !tbaa !8
  %20 = load ptr, ptr %2, align 8, !tbaa !3
  %21 = getelementptr inbounds nuw %struct.Llb_Mtr_t_, ptr %20, i32 0, i32 3
  %22 = load i32, ptr %21, align 4, !tbaa !24
  %23 = sub nsw i32 %22, 1
  %24 = icmp slt i32 %19, %23
  br i1 %24, label %25, label %95

25:                                               ; preds = %18
  %26 = load ptr, ptr %2, align 8, !tbaa !3
  %27 = getelementptr inbounds nuw %struct.Llb_Mtr_t_, ptr %26, i32 0, i32 4
  %28 = load ptr, ptr %27, align 8, !tbaa !25
  %29 = load i32, ptr %5, align 4, !tbaa !8
  %30 = sext i32 %29 to i64
  %31 = getelementptr inbounds i32, ptr %28, i64 %30
  %32 = load i32, ptr %31, align 4, !tbaa !8
  %33 = icmp eq i32 %32, 0
  br i1 %33, label %50, label %34

34:                                               ; preds = %25
  %35 = load ptr, ptr %2, align 8, !tbaa !3
  %36 = getelementptr inbounds nuw %struct.Llb_Mtr_t_, ptr %35, i32 0, i32 4
  %37 = load ptr, ptr %36, align 8, !tbaa !25
  %38 = load i32, ptr %5, align 4, !tbaa !8
  %39 = sext i32 %38 to i64
  %40 = getelementptr inbounds i32, ptr %37, i64 %39
  %41 = load i32, ptr %40, align 4, !tbaa !8
  %42 = load ptr, ptr %2, align 8, !tbaa !3
  %43 = getelementptr inbounds nuw %struct.Llb_Mtr_t_, ptr %42, i32 0, i32 8
  %44 = load ptr, ptr %43, align 8, !tbaa !26
  %45 = getelementptr inbounds nuw %struct.Llb_Man_t_, ptr %44, i32 0, i32 0
  %46 = load ptr, ptr %45, align 8, !tbaa !27
  %47 = getelementptr inbounds nuw %struct.Gia_ParLlb_t_, ptr %46, i32 0, i32 2
  %48 = load i32, ptr %47, align 8, !tbaa !34
  %49 = icmp sgt i32 %41, %48
  br i1 %49, label %50, label %51

50:                                               ; preds = %34, %25
  br label %92

51:                                               ; preds = %34
  %52 = load ptr, ptr %2, align 8, !tbaa !3
  %53 = getelementptr inbounds nuw %struct.Llb_Mtr_t_, ptr %52, i32 0, i32 4
  %54 = load ptr, ptr %53, align 8, !tbaa !25
  %55 = load i32, ptr %6, align 4, !tbaa !8
  %56 = sext i32 %55 to i64
  %57 = getelementptr inbounds i32, ptr %54, i64 %56
  %58 = load i32, ptr %57, align 4, !tbaa !8
  %59 = icmp eq i32 %58, 0
  br i1 %59, label %76, label %60

60:                                               ; preds = %51
  %61 = load ptr, ptr %2, align 8, !tbaa !3
  %62 = getelementptr inbounds nuw %struct.Llb_Mtr_t_, ptr %61, i32 0, i32 4
  %63 = load ptr, ptr %62, align 8, !tbaa !25
  %64 = load i32, ptr %6, align 4, !tbaa !8
  %65 = sext i32 %64 to i64
  %66 = getelementptr inbounds i32, ptr %63, i64 %65
  %67 = load i32, ptr %66, align 4, !tbaa !8
  %68 = load ptr, ptr %2, align 8, !tbaa !3
  %69 = getelementptr inbounds nuw %struct.Llb_Mtr_t_, ptr %68, i32 0, i32 8
  %70 = load ptr, ptr %69, align 8, !tbaa !26
  %71 = getelementptr inbounds nuw %struct.Llb_Man_t_, ptr %70, i32 0, i32 0
  %72 = load ptr, ptr %71, align 8, !tbaa !27
  %73 = getelementptr inbounds nuw %struct.Gia_ParLlb_t_, ptr %72, i32 0, i32 2
  %74 = load i32, ptr %73, align 8, !tbaa !34
  %75 = icmp sgt i32 %67, %74
  br i1 %75, label %76, label %77

76:                                               ; preds = %60, %51
  br label %92

77:                                               ; preds = %60
  %78 = load ptr, ptr %2, align 8, !tbaa !3
  %79 = load i32, ptr %5, align 4, !tbaa !8
  %80 = load i32, ptr %6, align 4, !tbaa !8
  %81 = call float @Llb_ManComputeCommonAttr(ptr noundef %78, i32 noundef %79, i32 noundef %80)
  store float %81, ptr %4, align 4, !tbaa !43
  %82 = load float, ptr %3, align 4, !tbaa !43
  %83 = load float, ptr %4, align 4, !tbaa !43
  %84 = fcmp olt float %82, %83
  br i1 %84, label %85, label %91

85:                                               ; preds = %77
  %86 = load float, ptr %4, align 4, !tbaa !43
  store float %86, ptr %3, align 4, !tbaa !43
  %87 = load i32, ptr %5, align 4, !tbaa !8
  %88 = shl i32 %87, 16
  %89 = load i32, ptr %6, align 4, !tbaa !8
  %90 = or i32 %88, %89
  store i32 %90, ptr %7, align 4, !tbaa !8
  br label %91

91:                                               ; preds = %85, %77
  br label %92

92:                                               ; preds = %91, %76, %50
  %93 = load i32, ptr %6, align 4, !tbaa !8
  %94 = add nsw i32 %93, 1
  store i32 %94, ptr %6, align 4, !tbaa !8
  br label %18, !llvm.loop !50

95:                                               ; preds = %18
  br label %96

96:                                               ; preds = %95
  %97 = load i32, ptr %5, align 4, !tbaa !8
  %98 = add nsw i32 %97, 1
  store i32 %98, ptr %5, align 4, !tbaa !8
  br label %8, !llvm.loop !51

99:                                               ; preds = %8
  %100 = load i32, ptr %7, align 4, !tbaa !8
  call void @llvm.lifetime.end.p0(i64 4, ptr %7) #4
  call void @llvm.lifetime.end.p0(i64 4, ptr %6) #4
  call void @llvm.lifetime.end.p0(i64 4, ptr %5) #4
  call void @llvm.lifetime.end.p0(i64 4, ptr %4) #4
  call void @llvm.lifetime.end.p0(i64 4, ptr %3) #4
  ret i32 %100
}