; Function Attrs: nofree norecurse nosync nounwind memory(read, inaccessiblemem: none) uwtable
define i32 @Llb_ManComputeBestAttr(ptr noundef readonly captures(none) %0) local_unnamed_addr #0 {
  %2 = getelementptr inbounds nuw i8, ptr %0, i64 12
  %3 = load i32, ptr %2, align 4, !tbaa !22
  %4 = icmp sgt i32 %3, 2
  br i1 %4, label %.lr.ph52, label %._crit_edge

.lr.ph52:                                         ; preds = %1
  %5 = add nsw i32 %3, -1
  %6 = getelementptr inbounds nuw i8, ptr %0, i64 16
  %7 = getelementptr inbounds nuw i8, ptr %0, i64 48
  %8 = getelementptr inbounds nuw i8, ptr %0, i64 8
  %9 = getelementptr inbounds nuw i8, ptr %0, i64 4
  %10 = getelementptr inbounds nuw i8, ptr %0, i64 40
  %11 = zext nneg i32 %5 to i64
  %wide.trip.count62 = zext nneg i32 %5 to i64
  br label %12

.loopexit:                                        ; preds = %62, %.lr.ph.split, %.lr.ph, %12
  %.128.lcssa = phi float [ %.02749, %12 ], [ %.02749, %.lr.ph ], [ %.02749, %.lr.ph.split ], [ %.229, %62 ]
  %.1.lcssa = phi i32 [ %.051, %12 ], [ %.051, %.lr.ph ], [ %.051, %.lr.ph.split ], [ %.2, %62 ]
  %indvars.iv.next = add nuw nsw i64 %indvars.iv, 1
  %exitcond63.not = icmp eq i64 %indvars.iv.next60, %wide.trip.count62
  br i1 %exitcond63.not, label %._crit_edge, label %12, !llvm.loop !46

12:                                               ; preds = %.lr.ph52, %.loopexit
  %indvars.iv59 = phi i64 [ 1, %.lr.ph52 ], [ %indvars.iv.next60, %.loopexit ]
  %indvars.iv = phi i64 [ 2, %.lr.ph52 ], [ %indvars.iv.next, %.loopexit ]
  %.051 = phi i32 [ -1, %.lr.ph52 ], [ %.1.lcssa, %.loopexit ]
  %.02749 = phi float [ -1.000000e+05, %.lr.ph52 ], [ %.128.lcssa, %.loopexit ]
  %indvars.iv.next60 = add nuw nsw i64 %indvars.iv59, 1
  %13 = icmp samesign ult i64 %indvars.iv.next60, %11
  br i1 %13, label %.lr.ph, label %.loopexit

.lr.ph:                                           ; preds = %12
  %14 = load ptr, ptr %6, align 8, !tbaa !24
  %15 = getelementptr inbounds nuw i32, ptr %14, i64 %indvars.iv59
  %16 = load i32, ptr %15, align 4, !tbaa !19
  %17 = icmp eq i32 %16, 0
  %18 = trunc nuw nsw i64 %indvars.iv59 to i32
  %19 = shl i32 %18, 16
  br i1 %17, label %.loopexit, label %.lr.ph.split

.lr.ph.split:                                     ; preds = %.lr.ph
  %20 = load ptr, ptr %7, align 8, !tbaa !25
  %21 = load ptr, ptr %20, align 8, !tbaa !26
  %22 = getelementptr inbounds nuw i8, ptr %21, i64 8
  %23 = load i32, ptr %22, align 8, !tbaa !34
  %24 = icmp sgt i32 %16, %23
  br i1 %24, label %.loopexit, label %.lr.ph.split.split

.lr.ph.split.split:                               ; preds = %.lr.ph.split, %62
  %indvars.iv56 = phi i64 [ %indvars.iv.next57, %62 ], [ %indvars.iv, %.lr.ph.split ]
  %.137 = phi i32 [ %.2, %62 ], [ %.051, %.lr.ph.split ]
  %.12834 = phi float [ %.229, %62 ], [ %.02749, %.lr.ph.split ]
  %25 = getelementptr inbounds nuw i32, ptr %14, i64 %indvars.iv56
  %26 = load i32, ptr %25, align 4, !tbaa !19
  %27 = icmp eq i32 %26, 0
  %28 = icmp sgt i32 %26, %23
  %or.cond = or i1 %27, %28
  br i1 %or.cond, label %62, label %29

29:                                               ; preds = %.lr.ph.split.split
  %30 = load i32, ptr %8, align 8, !tbaa !3
  %31 = load i32, ptr %9, align 4, !tbaa !14
  %32 = sub nsw i32 %30, %31
  %33 = icmp sgt i32 %32, 0
  br i1 %33, label %.lr.ph.i, label %Llb_ManComputeCommonAttr.exit

.lr.ph.i:                                         ; preds = %29
  %34 = load ptr, ptr %10, align 8, !tbaa !15
  %35 = getelementptr inbounds nuw ptr, ptr %34, i64 %indvars.iv59
  %36 = load ptr, ptr %35, align 8, !tbaa !16
  %37 = getelementptr inbounds nuw ptr, ptr %34, i64 %indvars.iv56
  %wide.trip.count.i = zext nneg i32 %32 to i64
  %38 = load ptr, ptr %37, align 8, !tbaa !16
  br label %39

39:                                               ; preds = %51, %.lr.ph.i
  %indvars.iv.i = phi i64 [ 0, %.lr.ph.i ], [ %indvars.iv.next.i, %51 ]
  %.025.i = phi i32 [ 0, %.lr.ph.i ], [ %.1.i, %51 ]
  %.02024.i = phi i32 [ 0, %.lr.ph.i ], [ %.121.i, %51 ]
  %40 = getelementptr inbounds nuw i8, ptr %36, i64 %indvars.iv.i
  %41 = load i8, ptr %40, align 1, !tbaa !17
  %42 = icmp eq i8 %41, 1
  %43 = getelementptr inbounds nuw i8, ptr %38, i64 %indvars.iv.i
  %44 = load i8, ptr %43, align 1, !tbaa !17
  %45 = icmp eq i8 %44, 1
  br i1 %42, label %46, label %49

46:                                               ; preds = %39
  br i1 %45, label %47, label %.thread.i

47:                                               ; preds = %46
  %48 = add nsw i32 %.02024.i, 1
  br label %51

49:                                               ; preds = %39
  br i1 %45, label %.thread.i, label %51

.thread.i:                                        ; preds = %49, %46
  %50 = add nsw i32 %.025.i, 1
  br label %51

51:                                               ; preds = %.thread.i, %49, %47
  %.121.i = phi i32 [ %48, %47 ], [ %.02024.i, %.thread.i ], [ %.02024.i, %49 ]
  %.1.i = phi i32 [ %.025.i, %47 ], [ %50, %.thread.i ], [ %.025.i, %49 ]
  %indvars.iv.next.i = add nuw nsw i64 %indvars.iv.i, 1
  %exitcond.not.i = icmp eq i64 %indvars.iv.next.i, %wide.trip.count.i
  br i1 %exitcond.not.i, label %Llb_ManComputeCommonAttr.exit, label %39, !llvm.loop !45

Llb_ManComputeCommonAttr.exit:                    ; preds = %51, %29
  %.020.lcssa.i = phi i32 [ 0, %29 ], [ %.121.i, %51 ]
  %.0.lcssa.i = phi i32 [ 0, %29 ], [ %.1.i, %51 ]
  %52 = sitofp i32 %.0.lcssa.i to double
  %53 = fneg double %52
  %54 = add nsw i32 %.0.lcssa.i, %.020.lcssa.i
  %55 = sitofp i32 %54 to double
  %56 = fdiv double %53, %55
  %57 = fptrunc double %56 to float
  %58 = fcmp olt float %.12834, %57
  br i1 %58, label %59, label %62

59:                                               ; preds = %Llb_ManComputeCommonAttr.exit
  %60 = trunc nuw nsw i64 %indvars.iv56 to i32
  %61 = or i32 %19, %60
  br label %62

62:                                               ; preds = %Llb_ManComputeCommonAttr.exit, %59, %.lr.ph.split.split
  %.229 = phi float [ %.12834, %.lr.ph.split.split ], [ %57, %59 ], [ %.12834, %Llb_ManComputeCommonAttr.exit ]
  %.2 = phi i32 [ %.137, %.lr.ph.split.split ], [ %61, %59 ], [ %.137, %Llb_ManComputeCommonAttr.exit ]
  %indvars.iv.next57 = add nuw nsw i64 %indvars.iv56, 1
  %exitcond.not = icmp eq i64 %indvars.iv.next57, %wide.trip.count62
  br i1 %exitcond.not, label %.loopexit, label %.lr.ph.split.split, !llvm.loop !47

._crit_edge:                                      ; preds = %.loopexit, %1
  %.0.lcssa = phi i32 [ -1, %1 ], [ %.1.lcssa, %.loopexit ]
  ret i32 %.0.lcssa
}